; Function Attrs: nounwind uwtable
define void @Txs_ManCollectCone(ptr noundef %0, ptr noundef readonly captures(none) %1, ptr noundef initializes((4, 8)) %2, ptr noundef initializes((4, 8)) %3) local_unnamed_addr #0 {
  %5 = getelementptr inbounds nuw i8, ptr %2, i64 4
  store i32 0, ptr %5, align 4, !tbaa !12
  %6 = getelementptr inbounds nuw i8, ptr %3, i64 4
  store i32 0, ptr %6, align 4, !tbaa !12
  %7 = getelementptr i8, ptr %0, i64 32
  %.val = load ptr, ptr %7, align 8, !tbaa !29
  %8 = getelementptr inbounds nuw i8, ptr %.val, i64 8
  store i32 -1, ptr %8, align 4, !tbaa !27
  %9 = getelementptr i8, ptr %1, i64 4
  %.val1316 = load i32, ptr %9, align 4, !tbaa !12
  %10 = icmp sgt i32 %.val1316, 0
  br i1 %10, label %.lr.ph, label %.critedge

.lr.ph:                                           ; preds = %4
  %11 = getelementptr i8, ptr %1, i64 8
  br label %12

12:                                               ; preds = %.lr.ph, %13
  %indvars.iv = phi i64 [ 0, %.lr.ph ], [ %indvars.iv.next, %13 ]
  %.val15 = load ptr, ptr %7, align 8, !tbaa !29
  %.not = icmp eq ptr %.val15, null
  br i1 %.not, label %.critedge, label %13

13:                                               ; preds = %12
  %.val14 = load ptr, ptr %11, align 8, !tbaa !17
  %14 = getelementptr inbounds nuw i32, ptr %.val14, i64 %indvars.iv
  %15 = load i32, ptr %14, align 4, !tbaa !46
  %16 = sext i32 %15 to i64
  %17 = getelementptr inbounds %struct.Gia_Obj_t_, ptr %.val15, i64 %16
  %18 = load i64, ptr %17, align 4
  %19 = and i64 %18, 536870911
  %20 = sub nsw i64 0, %19
  %21 = getelementptr inbounds %struct.Gia_Obj_t_, ptr %17, i64 %20
  tail call void @Txs_ManCollectCone_rec(ptr noundef nonnull %0, ptr noundef nonnull %21, ptr noundef %2, ptr noundef %3)
  %indvars.iv.next = add nuw nsw i64 %indvars.iv, 1
  %.val13 = load i32, ptr %9, align 4, !tbaa !12
  %22 = sext i32 %.val13 to i64
  %23 = icmp slt i64 %indvars.iv.next, %22
  br i1 %23, label %12, label %.critedge, !llvm.loop !47

.critedge:                                        ; preds = %12, %13, %4
  ret void
}